; Function Attrs: mustprogress nounwind uwtable
define internal fastcc void @_ZNSt8_Rb_treeINSt7__cxx1112basic_stringIcSt11char_traitsIcESaIcEEESt4pairIKS5_N11flatbuffers12_GLOBAL__N_116ImportDefinitionEESt10_Select1stISB_ESt4lessIS5_ESaISB_EE8_M_eraseEPSt13_Rb_tree_nodeISB_E(ptr noundef %__x) unnamed_addr #6 align 2 personality ptr @__gxx_personality_v0 {
entry:
  %cmp.not5 = icmp eq ptr %__x, null
  br i1 %cmp.not5, label %while.end, label %while.body

while.body:                                       ; preds = %entry, %while.body
  %__x.addr.06 = phi ptr [ %__x.addr.0.val, %while.body ], [ %__x, %entry ]
  %0 = getelementptr i8, ptr %__x.addr.06, i64 24
  %__x.addr.0.val4 = load ptr, ptr %0, align 8
  tail call fastcc void @_ZNSt8_Rb_treeINSt7__cxx1112basic_stringIcSt11char_traitsIcESaIcEEESt4pairIKS5_N11flatbuffers12_GLOBAL__N_116ImportDefinitionEESt10_Select1stISB_ESt4lessIS5_ESaISB_EE8_M_eraseEPSt13_Rb_tree_nodeISB_E(ptr noundef %__x.addr.0.val4)
  %1 = getelementptr i8, ptr %__x.addr.06, i64 16
  %__x.addr.0.val = load ptr, ptr %1, align 8
  %_M_storage.i.i.i = getelementptr inbounds i8, ptr %__x.addr.06, i64 32
  %second.i.i.i.i.i = getelementptr inbounds i8, ptr %__x.addr.06, i64 64
  %object_name.i.i.i.i.i.i = getelementptr inbounds i8, ptr %__x.addr.06, i64 224
  tail call void @_ZNSt7__cxx1112basic_stringIcSt11char_traitsIcESaIcEED1Ev(ptr noundef nonnull align 8 dereferenceable(32) %object_name.i.i.i.i.i.i) #21
  %rel_file_path.i.i.i.i.i.i = getelementptr inbounds i8, ptr %__x.addr.06, i64 192
  tail call void @_ZNSt7__cxx1112basic_stringIcSt11char_traitsIcESaIcEED1Ev(ptr noundef nonnull align 8 dereferenceable(32) %rel_file_path.i.i.i.i.i.i) #21
  %bare_file_path.i.i.i.i.i.i = getelementptr inbounds i8, ptr %__x.addr.06, i64 160
  tail call void @_ZNSt7__cxx1112basic_stringIcSt11char_traitsIcESaIcEED1Ev(ptr noundef nonnull align 8 dereferenceable(32) %bare_file_path.i.i.i.i.i.i) #21
  %export_statement.i.i.i.i.i.i = getelementptr inbounds i8, ptr %__x.addr.06, i64 128
  tail call void @_ZNSt7__cxx1112basic_stringIcSt11char_traitsIcESaIcEED1Ev(ptr noundef nonnull align 8 dereferenceable(32) %export_statement.i.i.i.i.i.i) #21
  %import_statement.i.i.i.i.i.i = getelementptr inbounds i8, ptr %__x.addr.06, i64 96
  tail call void @_ZNSt7__cxx1112basic_stringIcSt11char_traitsIcESaIcEED1Ev(ptr noundef nonnull align 8 dereferenceable(32) %import_statement.i.i.i.i.i.i) #21
  tail call void @_ZNSt7__cxx1112basic_stringIcSt11char_traitsIcESaIcEED1Ev(ptr noundef nonnull align 8 dereferenceable(32) %second.i.i.i.i.i) #21
  tail call void @_ZNSt7__cxx1112basic_stringIcSt11char_traitsIcESaIcEED1Ev(ptr noundef nonnull align 8 dereferenceable(32) %_M_storage.i.i.i) #21
  tail call void @_ZdlPv(ptr noundef nonnull %__x.addr.06) #22
  %cmp.not = icmp eq ptr %__x.addr.0.val, null
  br i1 %cmp.not, label %while.end, label %while.body, !llvm.loop !215

while.end:                                        ; preds = %while.body, %entry
  ret void
}